#include <math.h>
#include <stdio.h>
#include <stdlib.h>
#include <string.h>

// ?????.cpp : Defines the entry point for the console application.
//

int main(int argc, char* argv[])
{
	char dna1[600],dna2[600];
	int a,b,i;
	double x=0,ratio;
	scanf("%lf",&ratio);
	scanf("%s",dna1);
	scanf("%s",dna2);
	a=strlen(dna1);
	b=strlen(dna2);
	if(a!=b){
		printf("error");
		return 0;
	}
	for(i=0;i<a;i++){
		if(dna1[i]!='A'&&dna1[i]!='T'&&dna1[i]!='G'&&dna1[i]!='C'){
			printf("error");
			return 0;
		}
		if(dna2[i]!='A'&&dna2[i]!='T'&&dna2[i]!='G'&&dna2[i]!='C'){
			printf("error");
			return 0;
		}
		if(dna1[i]==dna2[i]) x++;
	}
	if(x/a>=ratio)printf("yes");
	else printf("no");
	return 0;
}

