; ModuleID = '5/168.c'
source_filename = "5/168.c"
target datalayout = "e-m:e-p270:32:32-p271:32:32-p272:64:64-i64:64-f80:128-n8:16:32:64-S128"
target triple = "x86_64-pc-linux-gnu"

@.str = private unnamed_addr constant [4 x i8] c"%lf\00", align 1
@.str.1 = private unnamed_addr constant [3 x i8] c"%s\00", align 1
@.str.2 = private unnamed_addr constant [6 x i8] c"error\00", align 1
@.str.3 = private unnamed_addr constant [4 x i8] c"yes\00", align 1
@.str.4 = private unnamed_addr constant [3 x i8] c"no\00", align 1

; Function Attrs: noinline nounwind uwtable
define dso_local i32 @main(i32 %0, i8** %1) #0 {
  %3 = alloca i32, align 4
  %4 = alloca i32, align 4
  %5 = alloca i8**, align 8
  %6 = alloca [600 x i8], align 16
  %7 = alloca [600 x i8], align 16
  %8 = alloca i32, align 4
  %9 = alloca i32, align 4
  %10 = alloca i32, align 4
  %11 = alloca double, align 8
  %12 = alloca double, align 8
  store i32 0, i32* %3, align 4
  store i32 %0, i32* %4, align 4
  store i8** %1, i8*** %5, align 8
  store double 0.000000e+00, double* %11, align 8
  %13 = call i32 (i8*, ...) @__isoc99_scanf(i8* getelementptr inbounds ([4 x i8], [4 x i8]* @.str, i64 0, i64 0), double* %12)
  %14 = getelementptr inbounds [600 x i8], [600 x i8]* %6, i64 0, i64 0
  %15 = call i32 (i8*, ...) @__isoc99_scanf(i8* getelementptr inbounds ([3 x i8], [3 x i8]* @.str.1, i64 0, i64 0), i8* %14)
  %16 = getelementptr inbounds [600 x i8], [600 x i8]* %7, i64 0, i64 0
  %17 = call i32 (i8*, ...) @__isoc99_scanf(i8* getelementptr inbounds ([3 x i8], [3 x i8]* @.str.1, i64 0, i64 0), i8* %16)
  %18 = getelementptr inbounds [600 x i8], [600 x i8]* %6, i64 0, i64 0
  %19 = call i64 @strlen(i8* %18) #3
  %20 = trunc i64 %19 to i32
  store i32 %20, i32* %8, align 4
  %21 = getelementptr inbounds [600 x i8], [600 x i8]* %7, i64 0, i64 0
  %22 = call i64 @strlen(i8* %21) #3
  %23 = trunc i64 %22 to i32
  store i32 %23, i32* %9, align 4
  %24 = load i32, i32* %8, align 4
  %25 = load i32, i32* %9, align 4
  %26 = icmp ne i32 %24, %25
  br i1 %26, label %27, label %29

27:                                               ; preds = %2
  %28 = call i32 (i8*, ...) @printf(i8* getelementptr inbounds ([6 x i8], [6 x i8]* @.str.2, i64 0, i64 0))
  store i32 0, i32* %3, align 4
  br label %125

29:                                               ; preds = %2
  store i32 0, i32* %10, align 4
  br label %30

30:                                               ; preds = %110, %29
  %31 = load i32, i32* %10, align 4
  %32 = load i32, i32* %8, align 4
  %33 = icmp slt i32 %31, %32
  br i1 %33, label %34, label %113

34:                                               ; preds = %30
  %35 = load i32, i32* %10, align 4
  %36 = sext i32 %35 to i64
  %37 = getelementptr inbounds [600 x i8], [600 x i8]* %6, i64 0, i64 %36
  %38 = load i8, i8* %37, align 1
  %39 = sext i8 %38 to i32
  %40 = icmp ne i32 %39, 65
  br i1 %40, label %41, label %64

41:                                               ; preds = %34
  %42 = load i32, i32* %10, align 4
  %43 = sext i32 %42 to i64
  %44 = getelementptr inbounds [600 x i8], [600 x i8]* %6, i64 0, i64 %43
  %45 = load i8, i8* %44, align 1
  %46 = sext i8 %45 to i32
  %47 = icmp ne i32 %46, 84
  br i1 %47, label %48, label %64

48:                                               ; preds = %41
  %49 = load i32, i32* %10, align 4
  %50 = sext i32 %49 to i64
  %51 = getelementptr inbounds [600 x i8], [600 x i8]* %6, i64 0, i64 %50
  %52 = load i8, i8* %51, align 1
  %53 = sext i8 %52 to i32
  %54 = icmp ne i32 %53, 71
  br i1 %54, label %55, label %64

55:                                               ; preds = %48
  %56 = load i32, i32* %10, align 4
  %57 = sext i32 %56 to i64
  %58 = getelementptr inbounds [600 x i8], [600 x i8]* %6, i64 0, i64 %57
  %59 = load i8, i8* %58, align 1
  %60 = sext i8 %59 to i32
  %61 = icmp ne i32 %60, 67
  br i1 %61, label %62, label %64

62:                                               ; preds = %55
  %63 = call i32 (i8*, ...) @printf(i8* getelementptr inbounds ([6 x i8], [6 x i8]* @.str.2, i64 0, i64 0))
  store i32 0, i32* %3, align 4
  br label %125

64:                                               ; preds = %55, %48, %41, %34
  %65 = load i32, i32* %10, align 4
  %66 = sext i32 %65 to i64
  %67 = getelementptr inbounds [600 x i8], [600 x i8]* %7, i64 0, i64 %66
  %68 = load i8, i8* %67, align 1
  %69 = sext i8 %68 to i32
  %70 = icmp ne i32 %69, 65
  br i1 %70, label %71, label %94

71:                                               ; preds = %64
  %72 = load i32, i32* %10, align 4
  %73 = sext i32 %72 to i64
  %74 = getelementptr inbounds [600 x i8], [600 x i8]* %7, i64 0, i64 %73
  %75 = load i8, i8* %74, align 1
  %76 = sext i8 %75 to i32
  %77 = icmp ne i32 %76, 84
  br i1 %77, label %78, label %94

78:                                               ; preds = %71
  %79 = load i32, i32* %10, align 4
  %80 = sext i32 %79 to i64
  %81 = getelementptr inbounds [600 x i8], [600 x i8]* %7, i64 0, i64 %80
  %82 = load i8, i8* %81, align 1
  %83 = sext i8 %82 to i32
  %84 = icmp ne i32 %83, 71
  br i1 %84, label %85, label %94

85:                                               ; preds = %78
  %86 = load i32, i32* %10, align 4
  %87 = sext i32 %86 to i64
  %88 = getelementptr inbounds [600 x i8], [600 x i8]* %7, i64 0, i64 %87
  %89 = load i8, i8* %88, align 1
  %90 = sext i8 %89 to i32
  %91 = icmp ne i32 %90, 67
  br i1 %91, label %92, label %94

92:                                               ; preds = %85
  %93 = call i32 (i8*, ...) @printf(i8* getelementptr inbounds ([6 x i8], [6 x i8]* @.str.2, i64 0, i64 0))
  store i32 0, i32* %3, align 4
  br label %125

94:                                               ; preds = %85, %78, %71, %64
  %95 = load i32, i32* %10, align 4
  %96 = sext i32 %95 to i64
  %97 = getelementptr inbounds [600 x i8], [600 x i8]* %6, i64 0, i64 %96
  %98 = load i8, i8* %97, align 1
  %99 = sext i8 %98 to i32
  %100 = load i32, i32* %10, align 4
  %101 = sext i32 %100 to i64
  %102 = getelementptr inbounds [600 x i8], [600 x i8]* %7, i64 0, i64 %101
  %103 = load i8, i8* %102, align 1
  %104 = sext i8 %103 to i32
  %105 = icmp eq i32 %99, %104
  br i1 %105, label %106, label %109

106:                                              ; preds = %94
  %107 = load double, double* %11, align 8
  %108 = fadd double %107, 1.000000e+00
  store double %108, double* %11, align 8
  br label %109

109:                                              ; preds = %106, %94
  br label %110

110:                                              ; preds = %109
  %111 = load i32, i32* %10, align 4
  %112 = add nsw i32 %111, 1
  store i32 %112, i32* %10, align 4
  br label %30

113:                                              ; preds = %30
  %114 = load double, double* %11, align 8
  %115 = load i32, i32* %8, align 4
  %116 = sitofp i32 %115 to double
  %117 = fdiv double %114, %116
  %118 = load double, double* %12, align 8
  %119 = fcmp oge double %117, %118
  br i1 %119, label %120, label %122

120:                                              ; preds = %113
  %121 = call i32 (i8*, ...) @printf(i8* getelementptr inbounds ([4 x i8], [4 x i8]* @.str.3, i64 0, i64 0))
  br label %124

122:                                              ; preds = %113
  %123 = call i32 (i8*, ...) @printf(i8* getelementptr inbounds ([3 x i8], [3 x i8]* @.str.4, i64 0, i64 0))
  br label %124

124:                                              ; preds = %122, %120
  store i32 0, i32* %3, align 4
  br label %125

125:                                              ; preds = %124, %92, %62, %27
  %126 = load i32, i32* %3, align 4
  ret i32 %126
}

declare dso_local i32 @__isoc99_scanf(i8*, ...) #1

; Function Attrs: nounwind readonly
declare dso_local i64 @strlen(i8*) #2

declare dso_local i32 @printf(i8*, ...) #1


!llvm.module.flags = !{!0}
!llvm.ident = !{!1}

!0 = !{i32 1, !"wchar_size", i32 4}
!1 = !{!"clang version 10.0.0-4ubuntu1 "}
